; Function Attrs: mustprogress uwtable
define dso_local noundef zeroext i1 @_ZN13cmSystemTools16GetInterruptFlagEv() local_unnamed_addr #3 align 2 {
  %1 = load ptr, ptr getelementptr inbounds nuw (i8, ptr @_ZN12_GLOBAL__N_119s_InterruptCallbackE, i64 16), align 8, !tbaa !61
  %.not.i.i.not = icmp eq ptr %1, null
  br i1 %.not.i.i.not, label %4, label %_ZNKSt8functionIFbvEEclEv.exit

_ZNKSt8functionIFbvEEclEv.exit:                   ; preds = %0
  %2 = load ptr, ptr getelementptr inbounds nuw (i8, ptr @_ZN12_GLOBAL__N_119s_InterruptCallbackE, i64 24), align 8, !tbaa !58
  %3 = tail call noundef zeroext i1 %2(ptr noundef nonnull align 8 dereferenceable(16) @_ZN12_GLOBAL__N_119s_InterruptCallbackE)
  br label %4

4:                                                ; preds = %0, %_ZNKSt8functionIFbvEEclEv.exit
  %.0 = phi i1 [ %3, %_ZNKSt8functionIFbvEEclEv.exit ], [ false, %0 ]
  ret i1 %.0
}